; Function Attrs: nofree norecurse nosync nounwind memory(argmem: readwrite) uwtable
define internal void @SDL_Convert41ToMono(ptr noundef writeonly captures(none) %0, ptr noundef readonly captures(none) %1, i32 noundef %2) #5 {
  %.not12 = icmp eq i32 %2, 0
  br i1 %.not12, label %._crit_edge, label %.lr.ph

.lr.ph:                                           ; preds = %3, %.lr.ph
  %.015 = phi i32 [ %18, %.lr.ph ], [ %2, %3 ]
  %.01014 = phi ptr [ %20, %.lr.ph ], [ %0, %3 ]
  %.01113 = phi ptr [ %19, %.lr.ph ], [ %1, %3 ]
  %4 = load float, ptr %.01113, align 4
  %5 = getelementptr inbounds nuw i8, ptr %.01113, i64 4
  %6 = load float, ptr %5, align 4
  %7 = fmul float %6, 0x3FC99999A0000000
  %8 = tail call float @llvm.fmuladd.f32(float %4, float 0x3FC99999A0000000, float %7)
  %9 = getelementptr inbounds nuw i8, ptr %.01113, i64 8
  %10 = load float, ptr %9, align 4
  %11 = tail call float @llvm.fmuladd.f32(float %10, float 0x3FC99999A0000000, float %8)
  %12 = getelementptr inbounds nuw i8, ptr %.01113, i64 12
  %13 = load float, ptr %12, align 4
  %14 = tail call float @llvm.fmuladd.f32(float %13, float 0x3FC99999A0000000, float %11)
  %15 = getelementptr inbounds nuw i8, ptr %.01113, i64 16
  %16 = load float, ptr %15, align 4
  %17 = tail call float @llvm.fmuladd.f32(float %16, float 0x3FC99999A0000000, float %14)
  store float %17, ptr %.01014, align 4
  %18 = add nsw i32 %.015, -1
  %19 = getelementptr inbounds nuw i8, ptr %.01113, i64 20
  %20 = getelementptr inbounds nuw i8, ptr %.01014, i64 4
  %.not = icmp eq i32 %18, 0
  br i1 %.not, label %._crit_edge, label %.lr.ph, !llvm.loop !78

._crit_edge:                                      ; preds = %.lr.ph, %3
  ret void
}